(dp0
S'rmse_rot'
p1
(lp2
F12.46341184949619
asS'rmse_trans'
p3
(lp4
F118.49986685165133
asS'rmse_scale'
p5
(lp6
F711847.3450705773
asS'rmse_rot_stats'
p7
(dp8
S'std'
p9
F0.0
sS'min'
p10
F12.46341184949619
sS'max'
p11
F12.46341184949619
sS'rmse'
p12
F12.46341184949619
sS'median'
p13
F12.46341184949619
sS'num_samples'
p14
I1
sS'mean'
p15
F12.46341184949619
ssS'rmse_scale_stats'
p16
(dp17
g9
F0.0
sg10
F711847.3450705773
sg11
F711847.3450705773
sg12
F711847.3450705773
sg13
F711847.3450705773
sg14
I1
sg15
F711847.3450705773
ssS'rmse_trans_stats'
p18
(dp19
g9
F0.0
sg10
F118.49986685165133
sg11
F118.49986685165133
sg12
F118.49986685165133
sg13
F118.49986685165133
sg14
I1
sg15
F118.49986685165133
ss.