(dp0
S'rmse_rot'
p1
(lp2
F18.069074506072404
asS'rmse_trans'
p3
(lp4
F308.2376317366622
asS'rmse_scale'
p5
(lp6
F4778.121085891937
asS'rmse_rot_stats'
p7
(dp8
S'std'
p9
F0.0
sS'min'
p10
F18.069074506072404
sS'max'
p11
F18.069074506072404
sS'rmse'
p12
F18.069074506072404
sS'median'
p13
F18.069074506072404
sS'num_samples'
p14
I1
sS'mean'
p15
F18.069074506072404
ssS'rmse_scale_stats'
p16
(dp17
g9
F0.0
sg10
F4778.121085891937
sg11
F4778.121085891937
sg12
F4778.121085891937
sg13
F4778.121085891937
sg14
I1
sg15
F4778.121085891937
ssS'rmse_trans_stats'
p18
(dp19
g9
F0.0
sg10
F308.2376317366622
sg11
F308.2376317366622
sg12
F308.2376317366622
sg13
F308.2376317366622
sg14
I1
sg15
F308.2376317366622
ss.