(dp0
S'rmse_rot'
p1
(lp2
F14.012847227074365
asS'rmse_trans'
p3
(lp4
F39.42278173245476
asS'rmse_scale'
p5
(lp6
F2675.052396046607
asS'rmse_rot_stats'
p7
(dp8
S'std'
p9
F0.0
sS'min'
p10
F14.012847227074365
sS'max'
p11
F14.012847227074365
sS'rmse'
p12
F14.012847227074365
sS'median'
p13
F14.012847227074365
sS'num_samples'
p14
I1
sS'mean'
p15
F14.012847227074365
ssS'rmse_scale_stats'
p16
(dp17
g9
F0.0
sg10
F2675.052396046607
sg11
F2675.052396046607
sg12
F2675.052396046607
sg13
F2675.052396046607
sg14
I1
sg15
F2675.052396046607
ssS'rmse_trans_stats'
p18
(dp19
g9
F0.0
sg10
F39.42278173245476
sg11
F39.42278173245476
sg12
F39.42278173245476
sg13
F39.42278173245476
sg14
I1
sg15
F39.42278173245476
ss.