(dp0
S'rmse_rot'
p1
(lp2
F2.0726573640366652
asS'rmse_trans'
p3
(lp4
F21.859763747897276
asS'rmse_scale'
p5
(lp6
F68765.49363829086
asS'rmse_rot_stats'
p7
(dp8
S'std'
p9
F0.0
sS'min'
p10
F2.0726573640366652
sS'max'
p11
F2.0726573640366652
sS'rmse'
p12
F2.0726573640366652
sS'median'
p13
F2.0726573640366652
sS'num_samples'
p14
I1
sS'mean'
p15
F2.0726573640366652
ssS'rmse_scale_stats'
p16
(dp17
g9
F0.0
sg10
F68765.49363829086
sg11
F68765.49363829086
sg12
F68765.49363829086
sg13
F68765.49363829086
sg14
I1
sg15
F68765.49363829086
ssS'rmse_trans_stats'
p18
(dp19
g9
F0.0
sg10
F21.859763747897276
sg11
F21.859763747897276
sg12
F21.859763747897276
sg13
F21.859763747897276
sg14
I1
sg15
F21.859763747897276
ss.